	.section	__TEXT,__text,regular,pure_instructions
	.build_version macos, 13, 0
	.globl	_main                           ; -- Begin function main
	.p2align	2
_main:                                  ; @main
	.cfi_startproc
; %bb.0:                                ; %entry
	sub	sp, sp, #32
	.cfi_def_cfa_offset 32
	stp	x29, x30, [sp, #16]             ; 16-byte Folded Spill
	.cfi_offset w30, -8
	.cfi_offset w29, -16
	mov	w0, #10
	bl	_fib
	mov	w8, w0
Lloh0:
	adrp	x0, l_.str@PAGE
Lloh1:
	add	x0, x0, l_.str@PAGEOFF
	str	x8, [sp]
	bl	_printf
	ldp	x29, x30, [sp, #16]             ; 16-byte Folded Reload
	add	sp, sp, #32
	ret
	.loh AdrpAdd	Lloh0, Lloh1
	.cfi_endproc
                                        ; -- End function
	.globl	_fib                            ; -- Begin function fib
	.p2align	2
_fib:                                   ; @fib
	.cfi_startproc
; %bb.0:                                ; %entry
	stp	x20, x19, [sp, #-32]!           ; 16-byte Folded Spill
	.cfi_def_cfa_offset 32
	stp	x29, x30, [sp, #16]             ; 16-byte Folded Spill
	.cfi_offset w30, -8
	.cfi_offset w29, -16
	.cfi_offset w19, -24
	.cfi_offset w20, -32
	subs	w19, w0, #2
	b.lt	LBB1_2
; %bb.1:                                ; %else
	sub	w0, w0, #1
	bl	_fib
	mov	w20, w0
	mov	w0, w19
	bl	_fib
	add	w0, w20, w0
LBB1_2:                                 ; %ifcont
	ldp	x29, x30, [sp, #16]             ; 16-byte Folded Reload
	ldp	x20, x19, [sp], #32             ; 16-byte Folded Reload
	ret
	.cfi_endproc
                                        ; -- End function
	.section	__TEXT,__const
l_.str:                                 ; @.str
	.ascii	"%d\n"

.subsections_via_symbols
